; Function Attrs: null_pointer_is_valid sspstrong uwtable
define hidden ptr @p_ipv6_pinfo_add_len(ptr noundef %0, i32 noundef %1) local_unnamed_addr #0 {
  %3 = getelementptr inbounds nuw i8, ptr %0, i64 408
  %4 = load ptr, ptr %3, align 8
  %5 = load i32, ptr @proto_ipv6, align 4
  %6 = tail call ptr @p_get_proto_data(ptr noundef %4, ptr noundef %0, i32 noundef %5, i32 noundef 2)
  %7 = icmp eq ptr %6, null
  br i1 %7, label %15, label %8

8:                                                ; preds = %2
  %9 = getelementptr inbounds nuw i8, ptr %6, i64 8
  %10 = load i32, ptr %9, align 8
  %11 = sub i32 %10, %1
  store i32 %11, ptr %9, align 8
  %12 = getelementptr inbounds nuw i8, ptr %6, i64 24
  %13 = load i32, ptr %12, align 8
  %14 = add i32 %13, %1
  store i32 %14, ptr %12, align 8
  br label %15

15:                                               ; preds = %2, %8
  ret ptr %6
}